; Function Attrs: mustprogress nofree norecurse nosync nounwind willreturn memory(readwrite, inaccessiblemem: none) uwtable
define internal noundef i32 @Jac(double %0, ptr noundef readonly captures(none) %1, ptr readnone captures(none) %2, ptr noundef readonly captures(none) %3, ptr noundef readonly captures(none) %4, ptr readnone captures(none) %5, ptr readnone captures(none) %6, ptr readnone captures(none) %7) #4 {
  %9 = load ptr, ptr %1, align 8, !tbaa !13
  %10 = getelementptr inbounds nuw i8, ptr %9, i64 16
  %11 = load ptr, ptr %10, align 8, !tbaa !16
  %12 = getelementptr inbounds nuw i8, ptr %11, i64 8
  %13 = load double, ptr %12, align 8, !tbaa !11
  %14 = getelementptr inbounds nuw i8, ptr %11, i64 16
  %15 = load double, ptr %14, align 8, !tbaa !11
  %16 = getelementptr inbounds nuw i8, ptr %4, i64 16
  %17 = load double, ptr %16, align 8, !tbaa !11
  %18 = getelementptr inbounds nuw i8, ptr %4, i64 24
  %19 = load double, ptr %18, align 8, !tbaa !11
  %20 = getelementptr inbounds nuw i8, ptr %4, i64 32
  %21 = load double, ptr %20, align 8, !tbaa !11
  %22 = fneg double %17
  %23 = load ptr, ptr %3, align 8, !tbaa !30
  %24 = getelementptr inbounds nuw i8, ptr %23, i64 32
  %25 = load ptr, ptr %24, align 8, !tbaa !33
  %26 = load ptr, ptr %25, align 8, !tbaa !36
  store double %22, ptr %26, align 8, !tbaa !11
  %27 = fmul double %15, %19
  %28 = getelementptr inbounds nuw i8, ptr %25, i64 8
  %29 = load ptr, ptr %28, align 8, !tbaa !36
  store double %27, ptr %29, align 8, !tbaa !11
  %30 = fmul double %13, %19
  %31 = getelementptr inbounds nuw i8, ptr %25, i64 16
  %32 = load ptr, ptr %31, align 8, !tbaa !36
  store double %30, ptr %32, align 8, !tbaa !11
  %33 = getelementptr inbounds nuw i8, ptr %26, i64 8
  store double %17, ptr %33, align 8, !tbaa !11
  %34 = fneg double %19
  %35 = fmul double %21, 2.000000e+00
  %36 = fmul double %13, %35
  %37 = fneg double %36
  %38 = tail call double @llvm.fmuladd.f64(double %34, double %15, double %37)
  %39 = getelementptr inbounds nuw i8, ptr %29, i64 8
  store double %38, ptr %39, align 8, !tbaa !11
  %40 = fmul double %13, %34
  %41 = getelementptr inbounds nuw i8, ptr %32, i64 8
  store double %40, ptr %41, align 8, !tbaa !11
  %42 = getelementptr inbounds nuw i8, ptr %29, i64 16
  store double %36, ptr %42, align 8, !tbaa !11
  ret i32 0
}